; Function Attrs: mustprogress uwtable
define internal noalias noundef nonnull ptr @_ZN9grpc_core12_GLOBAL__N_19ErrorCopyEPv(ptr nocapture noundef readonly %p) #3 personality ptr @__gxx_personality_v0 {
entry:
  %call = tail call noalias noundef nonnull dereferenceable(8) ptr @_Znwm(i64 noundef 8) #25
  %0 = load i64, ptr %p, align 8
  store i64 %0, ptr %call, align 8
  %and.i.i.i = and i64 %0, 1
  %cmp.i.i.i = icmp eq i64 %and.i.i.i, 0
  br i1 %cmp.i.i.i, label %invoke.cont, label %if.then.i.i

if.then.i.i:                                      ; preds = %entry
  %sub.i.i.i = add nsw i64 %0, -1
  %1 = inttoptr i64 %sub.i.i.i to ptr
  %2 = atomicrmw add ptr %1, i32 1 monotonic, align 4
  br label %invoke.cont

invoke.cont:                                      ; preds = %if.then.i.i, %entry
  ret ptr %call
}